target datalayout = "e-m:e-p270:32:32-p271:32:32-p272:64:64-i64:64-i128:128-f80:128-n8:16:32:64-S128"
target triple = "x86_64-pc-linux-gnu"

%"class.google::protobuf::StringPiece" = type { ptr, i64 }

; Function Attrs: mustprogress nounwind uwtable
define linkonce_odr noundef ptr @_ZNK6google8protobuf11StringPiece4dataEv(ptr noundef nonnull align 8 dereferenceable(16) %0) #2 comdat align 2 {
  %2 = alloca ptr, align 8
  store ptr %0, ptr %2, align 8, !tbaa !8
  %3 = load ptr, ptr %2, align 8
  %4 = getelementptr inbounds nuw %"class.google::protobuf::StringPiece", ptr %3, i32 0, i32 0
  %5 = load ptr, ptr %4, align 8, !tbaa !10
  ret ptr %5
}

; Function Attrs: mustprogress nounwind uwtable
define linkonce_odr noundef i64 @_ZNK6google8protobuf11StringPiece6lengthEv(ptr noundef nonnull align 8 dereferenceable(16) %0) #2 comdat align 2 {
  %2 = alloca ptr, align 8
  store ptr %0, ptr %2, align 8, !tbaa !8
  %3 = load ptr, ptr %2, align 8
  %4 = getelementptr inbounds nuw %"class.google::protobuf::StringPiece", ptr %3, i32 0, i32 1
  %5 = load i64, ptr %4, align 8, !tbaa !14
  ret i64 %5
}

; Function Attrs: inlinehint mustprogress uwtable
define internal void @_ZN6google8protobufL16BuildLookupTableENS0_11StringPieceEPb(ptr %0, i64 %1, ptr noundef %2) #7 {
  %4 = alloca %"class.google::protobuf::StringPiece", align 8
  %5 = alloca ptr, align 8
  %6 = alloca i64, align 8
  %7 = alloca ptr, align 8
  %8 = alloca i64, align 8
  %9 = getelementptr inbounds nuw { ptr, i64 }, ptr %4, i32 0, i32 0
  store ptr %0, ptr %9, align 8
  %10 = getelementptr inbounds nuw { ptr, i64 }, ptr %4, i32 0, i32 1
  store i64 %1, ptr %10, align 8
  store ptr %2, ptr %5, align 8, !tbaa !35
  call void @llvm.lifetime.start.p0(i64 8, ptr %6) #13
  %11 = call noundef i64 @_ZNK6google8protobuf11StringPiece6lengthEv(ptr noundef nonnull align 8 dereferenceable(16) %4)
  store i64 %11, ptr %6, align 8, !tbaa !15
  call void @llvm.lifetime.start.p0(i64 8, ptr %7) #13
  %12 = call noundef ptr @_ZNK6google8protobuf11StringPiece4dataEv(ptr noundef nonnull align 8 dereferenceable(16) %4)
  store ptr %12, ptr %7, align 8, !tbaa !16
  call void @llvm.lifetime.start.p0(i64 8, ptr %8) #13
  store i64 0, ptr %8, align 8, !tbaa !15
  br label %13

13:                                               ; preds = %26, %3
  %14 = load i64, ptr %8, align 8, !tbaa !15
  %15 = load i64, ptr %6, align 8, !tbaa !15
  %16 = icmp slt i64 %14, %15
  br i1 %16, label %18, label %17

17:                                               ; preds = %13
  call void @llvm.lifetime.end.p0(i64 8, ptr %8) #13
  br label %29

18:                                               ; preds = %13
  %19 = load ptr, ptr %5, align 8, !tbaa !35
  %20 = load ptr, ptr %7, align 8, !tbaa !16
  %21 = load i64, ptr %8, align 8, !tbaa !15
  %22 = getelementptr inbounds i8, ptr %20, i64 %21
  %23 = load i8, ptr %22, align 1, !tbaa !28
  %24 = zext i8 %23 to i64
  %25 = getelementptr inbounds nuw i8, ptr %19, i64 %24
  store i8 1, ptr %25, align 1, !tbaa !30
  br label %26

26:                                               ; preds = %18
  %27 = load i64, ptr %8, align 8, !tbaa !15
  %28 = add nsw i64 %27, 1
  store i64 %28, ptr %8, align 8, !tbaa !15
  br label %13, !llvm.loop !37

29:                                               ; preds = %17
  call void @llvm.lifetime.end.p0(i64 8, ptr %7) #13
  call void @llvm.lifetime.end.p0(i64 8, ptr %6) #13
  ret void
}

; Function Attrs: mustprogress uwtable
define noundef i64 @_ZNK6google8protobuf11StringPiece16find_last_not_ofEcm(ptr noundef nonnull align 8 dereferenceable(16) %0, i8 noundef signext %1, i64 noundef %2) #0 align 2 {
  %4 = alloca i64, align 8
  %5 = alloca ptr, align 8
  %6 = alloca i8, align 1
  %7 = alloca i64, align 8
  %8 = alloca i64, align 8
  %9 = alloca i64, align 8
  %10 = alloca i32, align 4
  store ptr %0, ptr %5, align 8, !tbaa !8
  store i8 %1, ptr %6, align 1, !tbaa !28
  store i64 %2, ptr %7, align 8, !tbaa !15
  %11 = load ptr, ptr %5, align 8
  %12 = getelementptr inbounds nuw %"class.google::protobuf::StringPiece", ptr %11, i32 0, i32 1
  %13 = load i64, ptr %12, align 8, !tbaa !14
  %14 = icmp sle i64 %13, 0
  br i1 %14, label %15, label %16

15:                                               ; preds = %3
  store i64 -1, ptr %4, align 8
  br label %45

16:                                               ; preds = %3
  call void @llvm.lifetime.start.p0(i64 8, ptr %8) #13
  call void @llvm.lifetime.start.p0(i64 8, ptr %9) #13
  %17 = getelementptr inbounds nuw %"class.google::protobuf::StringPiece", ptr %11, i32 0, i32 1
  %18 = load i64, ptr %17, align 8, !tbaa !14
  %19 = sub nsw i64 %18, 1
  store i64 %19, ptr %9, align 8, !tbaa !15
  %20 = call noundef nonnull align 8 dereferenceable(8) ptr @_ZSt3minImERKT_S2_S2_(ptr noundef nonnull align 8 dereferenceable(8) %7, ptr noundef nonnull align 8 dereferenceable(8) %9)
  %21 = load i64, ptr %20, align 8, !tbaa !15
  call void @llvm.lifetime.end.p0(i64 8, ptr %9) #13
  store i64 %21, ptr %8, align 8, !tbaa !15
  br label %22

22:                                               ; preds = %39, %16
  %23 = load i64, ptr %8, align 8, !tbaa !15
  %24 = icmp sge i64 %23, 0
  br i1 %24, label %26, label %25

25:                                               ; preds = %22
  store i32 2, ptr %10, align 4
  br label %42

26:                                               ; preds = %22
  %27 = getelementptr inbounds nuw %"class.google::protobuf::StringPiece", ptr %11, i32 0, i32 0
  %28 = load ptr, ptr %27, align 8, !tbaa !10
  %29 = load i64, ptr %8, align 8, !tbaa !15
  %30 = getelementptr inbounds i8, ptr %28, i64 %29
  %31 = load i8, ptr %30, align 1, !tbaa !28
  %32 = sext i8 %31 to i32
  %33 = load i8, ptr %6, align 1, !tbaa !28
  %34 = sext i8 %33 to i32
  %35 = icmp ne i32 %32, %34
  br i1 %35, label %36, label %38

36:                                               ; preds = %26
  %37 = load i64, ptr %8, align 8, !tbaa !15
  store i64 %37, ptr %4, align 8
  store i32 1, ptr %10, align 4
  br label %42

38:                                               ; preds = %26
  br label %39

39:                                               ; preds = %38
  %40 = load i64, ptr %8, align 8, !tbaa !15
  %41 = add nsw i64 %40, -1
  store i64 %41, ptr %8, align 8, !tbaa !15
  br label %22, !llvm.loop !42

42:                                               ; preds = %36, %25
  call void @llvm.lifetime.end.p0(i64 8, ptr %8) #13
  %43 = load i32, ptr %10, align 4
  switch i32 %43, label %47 [
    i32 2, label %44
    i32 1, label %45
  ]

44:                                               ; preds = %42
  store i64 -1, ptr %4, align 8
  br label %45

45:                                               ; preds = %44, %42, %15
  %46 = load i64, ptr %4, align 8
  ret i64 %46

47:                                               ; preds = %42
  unreachable
}

; Function Attrs: inlinehint mustprogress nounwind uwtable
define linkonce_odr noundef nonnull align 8 dereferenceable(8) ptr @_ZSt3minImERKT_S2_S2_(ptr noundef nonnull align 8 dereferenceable(8) %0, ptr noundef nonnull align 8 dereferenceable(8) %1) #5 comdat {
  %3 = alloca ptr, align 8
  %4 = alloca ptr, align 8
  %5 = alloca ptr, align 8
  store ptr %0, ptr %4, align 8, !tbaa !23
  store ptr %1, ptr %5, align 8, !tbaa !23
  %6 = load ptr, ptr %5, align 8, !tbaa !23
  %7 = load i64, ptr %6, align 8, !tbaa !15
  %8 = load ptr, ptr %4, align 8, !tbaa !23
  %9 = load i64, ptr %8, align 8, !tbaa !15
  %10 = icmp ult i64 %7, %9
  br i1 %10, label %11, label %13

11:                                               ; preds = %2
  %12 = load ptr, ptr %5, align 8, !tbaa !23
  store ptr %12, ptr %3, align 8
  br label %15

13:                                               ; preds = %2
  %14 = load ptr, ptr %4, align 8, !tbaa !23
  store ptr %14, ptr %3, align 8
  br label %15

15:                                               ; preds = %13, %11
  %16 = load ptr, ptr %3, align 8
  ret ptr %16
}

; Function Attrs: mustprogress uwtable
define noundef i64 @_ZNK6google8protobuf11StringPiece16find_last_not_ofES1_m(ptr noundef nonnull align 8 dereferenceable(16) %0, ptr %1, i64 %2, i64 noundef %3) #0 align 2 {
  %5 = alloca i64, align 8
  %6 = alloca %"class.google::protobuf::StringPiece", align 8
  %7 = alloca ptr, align 8
  %8 = alloca i64, align 8
  %9 = alloca i64, align 8
  %10 = alloca i64, align 8
  %11 = alloca i32, align 4
  %12 = alloca [256 x i8], align 16
  %13 = alloca %"class.google::protobuf::StringPiece", align 8
  %14 = getelementptr inbounds nuw { ptr, i64 }, ptr %6, i32 0, i32 0
  store ptr %1, ptr %14, align 8
  %15 = getelementptr inbounds nuw { ptr, i64 }, ptr %6, i32 0, i32 1
  store i64 %2, ptr %15, align 8
  store ptr %0, ptr %7, align 8, !tbaa !8
  store i64 %3, ptr %8, align 8, !tbaa !15
  %16 = load ptr, ptr %7, align 8
  %17 = getelementptr inbounds nuw %"class.google::protobuf::StringPiece", ptr %16, i32 0, i32 1
  %18 = load i64, ptr %17, align 8, !tbaa !14
  %19 = icmp sle i64 %18, 0
  br i1 %19, label %20, label %21

20:                                               ; preds = %4
  store i64 -1, ptr %5, align 8
  br label %71

21:                                               ; preds = %4
  call void @llvm.lifetime.start.p0(i64 8, ptr %9) #13
  call void @llvm.lifetime.start.p0(i64 8, ptr %10) #13
  %22 = getelementptr inbounds nuw %"class.google::protobuf::StringPiece", ptr %16, i32 0, i32 1
  %23 = load i64, ptr %22, align 8, !tbaa !14
  %24 = sub nsw i64 %23, 1
  store i64 %24, ptr %10, align 8, !tbaa !15
  %25 = call noundef nonnull align 8 dereferenceable(8) ptr @_ZSt3minImERKT_S2_S2_(ptr noundef nonnull align 8 dereferenceable(8) %8, ptr noundef nonnull align 8 dereferenceable(8) %10)
  %26 = load i64, ptr %25, align 8, !tbaa !15
  call void @llvm.lifetime.end.p0(i64 8, ptr %10) #13
  store i64 %26, ptr %9, align 8, !tbaa !15
  %27 = getelementptr inbounds nuw %"class.google::protobuf::StringPiece", ptr %6, i32 0, i32 1
  %28 = load i64, ptr %27, align 8, !tbaa !14
  %29 = icmp sle i64 %28, 0
  br i1 %29, label %30, label %32

30:                                               ; preds = %21
  %31 = load i64, ptr %9, align 8, !tbaa !15
  store i64 %31, ptr %5, align 8
  store i32 1, ptr %11, align 4
  br label %70

32:                                               ; preds = %21
  %33 = getelementptr inbounds nuw %"class.google::protobuf::StringPiece", ptr %6, i32 0, i32 1
  %34 = load i64, ptr %33, align 8, !tbaa !14
  %35 = icmp eq i64 %34, 1
  br i1 %35, label %36, label %43

36:                                               ; preds = %32
  %37 = getelementptr inbounds nuw %"class.google::protobuf::StringPiece", ptr %6, i32 0, i32 0
  %38 = load ptr, ptr %37, align 8, !tbaa !10
  %39 = getelementptr inbounds i8, ptr %38, i64 0
  %40 = load i8, ptr %39, align 1, !tbaa !28
  %41 = load i64, ptr %8, align 8, !tbaa !15
  %42 = call noundef i64 @_ZNK6google8protobuf11StringPiece16find_last_not_ofEcm(ptr noundef nonnull align 8 dereferenceable(16) %16, i8 noundef signext %40, i64 noundef %41)
  store i64 %42, ptr %5, align 8
  store i32 1, ptr %11, align 4
  br label %70

43:                                               ; preds = %32
  call void @llvm.lifetime.start.p0(i64 256, ptr %12) #13
  call void @llvm.memset.p0.i64(ptr align 16 %12, i8 0, i64 256, i1 false)
  call void @llvm.memcpy.p0.p0.i64(ptr align 8 %13, ptr align 8 %6, i64 16, i1 false), !tbaa.struct !27
  %44 = getelementptr inbounds [256 x i8], ptr %12, i64 0, i64 0
  %45 = getelementptr inbounds nuw { ptr, i64 }, ptr %13, i32 0, i32 0
  %46 = load ptr, ptr %45, align 8
  %47 = getelementptr inbounds nuw { ptr, i64 }, ptr %13, i32 0, i32 1
  %48 = load i64, ptr %47, align 8
  call void @_ZN6google8protobufL16BuildLookupTableENS0_11StringPieceEPb(ptr %46, i64 %48, ptr noundef %44)
  br label %49

49:                                               ; preds = %65, %43
  %50 = load i64, ptr %9, align 8, !tbaa !15
  %51 = icmp sge i64 %50, 0
  br i1 %51, label %52, label %68

52:                                               ; preds = %49
  %53 = getelementptr inbounds nuw %"class.google::protobuf::StringPiece", ptr %16, i32 0, i32 0
  %54 = load ptr, ptr %53, align 8, !tbaa !10
  %55 = load i64, ptr %9, align 8, !tbaa !15
  %56 = getelementptr inbounds i8, ptr %54, i64 %55
  %57 = load i8, ptr %56, align 1, !tbaa !28
  %58 = zext i8 %57 to i64
  %59 = getelementptr inbounds nuw [256 x i8], ptr %12, i64 0, i64 %58
  %60 = load i8, ptr %59, align 1, !tbaa !30, !range !32, !noundef !33
  %61 = trunc i8 %60 to i1
  br i1 %61, label %64, label %62

62:                                               ; preds = %52
  %63 = load i64, ptr %9, align 8, !tbaa !15
  store i64 %63, ptr %5, align 8
  store i32 1, ptr %11, align 4
  br label %69

64:                                               ; preds = %52
  br label %65

65:                                               ; preds = %64
  %66 = load i64, ptr %9, align 8, !tbaa !15
  %67 = add nsw i64 %66, -1
  store i64 %67, ptr %9, align 8, !tbaa !15
  br label %49, !llvm.loop !41

68:                                               ; preds = %49
  store i64 -1, ptr %5, align 8
  store i32 1, ptr %11, align 4
  br label %69

69:                                               ; preds = %68, %62
  call void @llvm.lifetime.end.p0(i64 256, ptr %12) #13
  br label %70

70:                                               ; preds = %69, %36, %30
  call void @llvm.lifetime.end.p0(i64 8, ptr %9) #13
  br label %71

71:                                               ; preds = %70, %20
  %72 = load i64, ptr %5, align 8
  ret i64 %72
}