; Function Attrs: mustprogress nofree norecurse nosync nounwind willreturn memory(read, inaccessiblemem: none) uwtable
define noundef range(i64 -1, 9223372036854775807) i64 @_ZNK6google8protobuf11StringPiece16find_last_not_ofES1_m(ptr noundef nonnull readonly align 8 captures(none) dereferenceable(16) %0, ptr readonly captures(none) %1, i64 %2, i64 noundef %3) local_unnamed_addr #10 align 2 {
  %5 = alloca [256 x i8], align 16
  %6 = getelementptr inbounds nuw i8, ptr %0, i64 8
  %7 = load i64, ptr %6, align 8, !tbaa !10
  %8 = icmp slt i64 %7, 1
  br i1 %8, label %_ZNK6google8protobuf11StringPiece16find_last_not_ofEcm.exit, label %9

9:                                                ; preds = %4
  %10 = add nsw i64 %7, -1
  %.sroa.speculated = tail call i64 @llvm.umin.i64(i64 %10, i64 %3)
  %11 = icmp slt i64 %2, 1
  br i1 %11, label %_ZNK6google8protobuf11StringPiece16find_last_not_ofEcm.exit, label %12

12:                                               ; preds = %9
  %13 = icmp eq i64 %2, 1
  br i1 %13, label %.lr.ph.i, label %21

.lr.ph.i:                                         ; preds = %12
  %14 = load i8, ptr %1, align 1, !tbaa !16
  %15 = load ptr, ptr %0, align 8, !tbaa !3
  br label %16

16:                                               ; preds = %select.unfold.i, %.lr.ph.i
  %.0713.i = phi i64 [ %.sroa.speculated, %.lr.ph.i ], [ %19, %select.unfold.i ]
  %17 = getelementptr inbounds nuw i8, ptr %15, i64 %.0713.i
  %18 = load i8, ptr %17, align 1, !tbaa !16
  %.not.i = icmp eq i8 %18, %14
  br i1 %.not.i, label %select.unfold.i, label %_ZNK6google8protobuf11StringPiece16find_last_not_ofEcm.exit

select.unfold.i:                                  ; preds = %16
  %19 = add nsw i64 %.0713.i, -1
  %20 = icmp slt i64 %.0713.i, 1
  br i1 %20, label %_ZNK6google8protobuf11StringPiece16find_last_not_ofEcm.exit, label %16, !llvm.loop !28

21:                                               ; preds = %12
  call void @llvm.lifetime.start.p0(i64 256, ptr nonnull %5) #16
  call void @llvm.memset.p0.i64(ptr noundef nonnull align 16 dereferenceable(256) %5, i8 0, i64 256, i1 false)
  br label %22

22:                                               ; preds = %22, %21
  %.05.i = phi i64 [ 0, %21 ], [ %27, %22 ]
  %23 = getelementptr inbounds nuw i8, ptr %1, i64 %.05.i
  %24 = load i8, ptr %23, align 1, !tbaa !16
  %25 = zext i8 %24 to i64
  %26 = getelementptr inbounds nuw i8, ptr %5, i64 %25
  store i8 1, ptr %26, align 1, !tbaa !19
  %27 = add nuw nsw i64 %.05.i, 1
  %exitcond.not.i = icmp eq i64 %27, %2
  br i1 %exitcond.not.i, label %.lr.ph, label %22, !llvm.loop !21

.lr.ph:                                           ; preds = %22
  %28 = load ptr, ptr %0, align 8, !tbaa !3
  br label %29

29:                                               ; preds = %.lr.ph, %_ZN6google8protobufL16BuildLookupTableENS0_11StringPieceEPb.exit
  %.0915 = phi i64 [ %.sroa.speculated, %.lr.ph ], [ %36, %_ZN6google8protobufL16BuildLookupTableENS0_11StringPieceEPb.exit ]
  %30 = getelementptr inbounds nuw i8, ptr %28, i64 %.0915
  %31 = load i8, ptr %30, align 1, !tbaa !16
  %32 = zext i8 %31 to i64
  %33 = getelementptr inbounds nuw [256 x i8], ptr %5, i64 0, i64 %32
  %34 = load i8, ptr %33, align 1, !tbaa !19, !range !22, !noundef !23
  %35 = trunc nuw i8 %34 to i1
  br i1 %35, label %_ZN6google8protobufL16BuildLookupTableENS0_11StringPieceEPb.exit, label %_ZN6google8protobufL16BuildLookupTableENS0_11StringPieceEPb.exit._crit_edge

_ZN6google8protobufL16BuildLookupTableENS0_11StringPieceEPb.exit: ; preds = %29
  %36 = add nsw i64 %.0915, -1
  %37 = icmp sgt i64 %.0915, 0
  br i1 %37, label %29, label %_ZN6google8protobufL16BuildLookupTableENS0_11StringPieceEPb.exit._crit_edge, !llvm.loop !29

_ZN6google8protobufL16BuildLookupTableENS0_11StringPieceEPb.exit._crit_edge: ; preds = %29, %_ZN6google8protobufL16BuildLookupTableENS0_11StringPieceEPb.exit
  %.2.ph = phi i64 [ %.0915, %29 ], [ -1, %_ZN6google8protobufL16BuildLookupTableENS0_11StringPieceEPb.exit ]
  call void @llvm.lifetime.end.p0(i64 256, ptr nonnull %5) #16
  br label %_ZNK6google8protobuf11StringPiece16find_last_not_ofEcm.exit

_ZNK6google8protobuf11StringPiece16find_last_not_ofEcm.exit: ; preds = %select.unfold.i, %16, %_ZN6google8protobufL16BuildLookupTableENS0_11StringPieceEPb.exit._crit_edge, %9, %4
  %.0 = phi i64 [ -1, %4 ], [ %.2.ph, %_ZN6google8protobufL16BuildLookupTableENS0_11StringPieceEPb.exit._crit_edge ], [ %.sroa.speculated, %9 ], [ -1, %select.unfold.i ], [ %.0713.i, %16 ]
  ret i64 %.0
}